(lp1
(dp2
S'repo'
p3
S'/home/hychen/projects/lazyscipt/t/datas/scriptspoll/f0f8d9d625c6478094236ed28060c5de/'
p4
sS'category'
p5
S'Networking'
p6
sS'name'
p7
S'ie6_after.sh'
p8
sS'id'
p9
g8
sa(dp10
g3
g4
sg5
g6
sg7
S'swiftfox'
p11
sg9
g11
sa(dp12
g3
g4
sg5
g6
sg7
S'flash'
p13
sg9
g13
sa(dp14
g3
g4
sg5
g6
sg7
S'ie6'
p15
sg9
g15
sa(dp16
g3
g4
sg5
g6
sg7
S'skype.sh'
p17
sg9
g17
sa(dp18
g3
g4
sg5
g6
sg7
S'ie6_seluser.py'
p19
sg9
g19
sa(dp20
g3
g4
sg5
g6
sg7
S'cwttf'
p21
sg9
g21
sa(dp22
g3
g4
sg5
g6
sg7
S'cpu-type.py'
p23
sg9
g23
sa(dp24
g3
g4
sg5
g6
sg7
S'deludge-torrent'
p25
sg9
g25
sa(dp26
g3
g4
sg5
g6
sg7
S'pcmanx'
p27
sg9
g27
sa(dp28
g3
g4
sg5
S'Localization'
p29
sg7
S'noseeing-inst'
p30
sg9
g30
sa(dp31
g3
g4
sg5
g29
sg7
S'cin.py'
p32
sg9
g32
sa(dp33
g3
g4
sg5
S'Customize'
p34
sg7
S'\xe5\xae\x89\xe8\xa3\x9d nuoveXT \xe5\x9c\x96\xe7\xa4\xba\xe4\xbd\x88\xe6\x99\xaf\xe4\xb8\xbb\xe9\xa1\x8c'
p35
sg9
S'nuovext-icon'
p36
sa(dp37
g3
g4
sg5
g34
sg7
S'\xe5\xae\x89\xe8\xa3\x9dUbuntu Tweak\xe6\xa0\xa1\xe8\xaa\xbf\xe5\xb7\xa5\xe5\x85\xb7'
p38
sg9
S'ubuntu-tweak.sh'
p39
sa(dp40
g3
g4
sg5
g34
sg7
S'\xe5\xae\x89\xe8\xa3\x9d\xe5\xb9\xbe\xe5\x80\x8b\xe5\xa5\xbd\xe7\x94\xa8\xe7\x9a\x84 Nautilus(\xe6\xaa\x94\xe6\xa1\x88\xe7\xae\xa1\xe7\x90\x86\xe7\xa8\x8b\xe5\xbc\x8f)\xe5\xa4\x96\xe6\x8e\x9b'
p41
sg9
S'nautilus'
p42
sa(dp43
g3
g4
sg5
g34
sg7
S'\xe4\xbf\xae\xe6\xad\xa3FAT32\xe7\xa3\x81\xe7\xa2\x9f\xe5\x88\x86\xe5\x89\xb2\xe8\xa8\xad\xe5\xae\x9a'
p44
sg9
S'fix-fstab'
p45
sa(dp46
g3
g4
sg5
g34
sg7
S'\xe4\xbf\xae\xe5\xbe\xa9\xe6\xac\x8a\xe9\x99\x90\xe5\x95\x8f\xe9\xa1\x8c'
p47
sg9
S'fix-perms'
p48
sa(dp49
g3
g4
sg5
S'Multimedia'
p50
sg7
S'gstreamer'
p51
sg9
g51
sa(dp52
g3
g4
sg5
g50
sg7
S'medibuntu'
p53
sg9
g53
sa(dp54
g3
g4
sg5
g50
sg7
S'k9copy'
p55
sg9
g55
sa(dp56
g3
g4
sg5
g50
sg7
S'dpgconv.sh'
p57
sg9
g57
sa(dp58
g3
g4
sg5
g50
sg7
S'acidrip'
p59
sg9
g59
sa(dp60
g3
g4
sg5
g50
sg7
S'multimedia-repos'
p61
sg9
g61
sa(dp62
g3
g4
sg5
g50
sg7
S'hinedo'
p63
sg9
g63
sa(dp64
g3
g4
sg5
S'Entertain'
p65
sg7
S'realplay'
p66
sg9
g66
sa(dp67
g3
g4
sg5
g65
sg7
S'audacious'
p68
sg9
g68
sa(dp69
g3
g4
sg5
g65
sg7
S'mplayer'
p70
sg9
g70
sa(dp71
g3
g4
sg5
S'Productivity'
p72
sg7
S'gnetdict'
p73
sg9
g73
sa(dp74
g3
g4
sg5
g72
sg7
S'stardict'
p75
sg9
g75
sa(dp76
g3
g4
sg5
g72
sg7
S'madedit.sh'
p77
sg9
g77
sa(dp78
g3
g4
sg5
g72
sg7
S'adobe-reader'
p79
sg9
g79
sa.